target datalayout = "e-m:e-p270:32:32-p271:32:32-p272:64:64-i64:64-i128:128-f80:128-n8:16:32:64-S128"
target triple = "x86_64-pc-linux-gnu"

; Function Attrs: nounwind uwtable
define hidden float @HIDAPI_RemapVal(float noundef %0, float noundef %1, float noundef %2, float noundef %3, float noundef %4) #0 {
  %6 = alloca float, align 4
  %7 = alloca float, align 4
  %8 = alloca float, align 4
  %9 = alloca float, align 4
  %10 = alloca float, align 4
  store float %0, ptr %6, align 4
  store float %1, ptr %7, align 4
  store float %2, ptr %8, align 4
  store float %3, ptr %9, align 4
  store float %4, ptr %10, align 4
  %11 = load float, ptr %9, align 4
  %12 = load float, ptr %10, align 4
  %13 = load float, ptr %9, align 4
  %14 = fsub float %12, %13
  %15 = load float, ptr %6, align 4
  %16 = load float, ptr %7, align 4
  %17 = fsub float %15, %16
  %18 = fmul float %14, %17
  %19 = load float, ptr %8, align 4
  %20 = load float, ptr %7, align 4
  %21 = fsub float %19, %20
  %22 = fdiv float %18, %21
  %23 = fadd float %11, %22
  ret float %23
}