; Function Attrs: mustprogress nofree norecurse nosync nounwind willreturn memory(none) uwtable
define hidden noundef float @HIDAPI_RemapVal(float noundef %0, float noundef %1, float noundef %2, float noundef %3, float noundef %4) local_unnamed_addr #3 {
  %6 = fsub float %4, %3
  %7 = fsub float %0, %1
  %8 = fmul float %7, %6
  %9 = fsub float %2, %1
  %10 = fdiv float %8, %9
  %11 = fadd float %3, %10
  ret float %11
}